; Function Attrs: mustprogress nofree norecurse nosync nounwind willreturn memory(argmem: readwrite) uwtable
define dso_local void @_ZN4Luau7CodeGen3X6416IrCallWrapperX6414addRegisterUseENS1_11RegisterX64E(ptr noundef nonnull align 8 captures(none) dereferenceable(240) %0, i8 %1) local_unnamed_addr #9 align 2 {
  %3 = and i8 %1, 7
  switch i8 %3, label %4 [
    i8 5, label %.sink.split
    i8 0, label %11
  ]

4:                                                ; preds = %2
  br label %.sink.split

.sink.split:                                      ; preds = %2, %4
  %.sink = phi i64 [ 208, %4 ], [ 224, %2 ]
  %5 = getelementptr inbounds nuw i8, ptr %0, i64 %.sink
  %6 = lshr i8 %1, 3
  %7 = zext nneg i8 %6 to i64
  %8 = getelementptr inbounds nuw [16 x i8], ptr %5, i64 0, i64 %7
  %9 = load i8, ptr %8, align 1, !tbaa !26
  %10 = add i8 %9, 1
  store i8 %10, ptr %8, align 1, !tbaa !26
  br label %11

11:                                               ; preds = %.sink.split, %2
  ret void
}